target datalayout = "e-m:e-p270:32:32-p271:32:32-p272:64:64-i64:64-i128:128-f80:128-n8:16:32:64-S128"
target triple = "x86_64-pc-linux-gnu"

%struct.UConverterAlias = type { ptr, ptr, ptr, ptr, ptr, ptr, ptr, ptr, ptr, i32, i32, i32, i32, i32, i32, i32, i32, i32 }

@_ZL10gMainTable = internal global %struct.UConverterAlias zeroinitializer, align 8

; Function Attrs: inlinehint mustprogress nounwind uwtable
define internal noundef signext i8 @_ZL7isAliasPKcP10UErrorCode(ptr noundef %0, ptr noundef %1) #3 {
  %3 = alloca i8, align 1
  %4 = alloca ptr, align 8
  %5 = alloca ptr, align 8
  store ptr %0, ptr %4, align 8, !tbaa !3
  store ptr %1, ptr %5, align 8, !tbaa !17
  %6 = load ptr, ptr %4, align 8, !tbaa !3
  %7 = icmp eq ptr %6, null
  br i1 %7, label %8, label %10

8:                                                ; preds = %2
  %9 = load ptr, ptr %5, align 8, !tbaa !17
  store i32 1, ptr %9, align 4, !tbaa !26
  store i8 0, ptr %3, align 1
  br label %16

10:                                               ; preds = %2
  %11 = load ptr, ptr %4, align 8, !tbaa !3
  %12 = load i8, ptr %11, align 1, !tbaa !8
  %13 = sext i8 %12 to i32
  %14 = icmp ne i32 %13, 0
  %15 = zext i1 %14 to i8
  store i8 %15, ptr %3, align 1
  br label %16

16:                                               ; preds = %10, %8
  %17 = load i8, ptr %3, align 1
  ret i8 %17
}

; Function Attrs: mustprogress uwtable
define ptr @ucnv_io_getConverterName_77(ptr noundef %0, ptr noundef %1, ptr noundef %2) #2 {
  %4 = alloca ptr, align 8
  %5 = alloca ptr, align 8
  %6 = alloca ptr, align 8
  %7 = alloca ptr, align 8
  %8 = alloca ptr, align 8
  %9 = alloca i32, align 4
  %10 = alloca i32, align 4
  %11 = alloca i32, align 4
  store ptr %0, ptr %5, align 8, !tbaa !3
  store ptr %1, ptr %6, align 8, !tbaa !3
  store ptr %2, ptr %7, align 8, !tbaa !17
  call void @llvm.lifetime.start.p0(i64 8, ptr %8) #12
  %12 = load ptr, ptr %5, align 8, !tbaa !3
  store ptr %12, ptr %8, align 8, !tbaa !3
  call void @llvm.lifetime.start.p0(i64 4, ptr %9) #12
  store i32 0, ptr %9, align 4, !tbaa !14
  store i32 0, ptr %9, align 4, !tbaa !14
  br label %13

13:                                               ; preds = %69, %3
  %14 = load i32, ptr %9, align 4, !tbaa !14
  %15 = icmp slt i32 %14, 2
  br i1 %15, label %16, label %72

16:                                               ; preds = %13
  %17 = load i32, ptr %9, align 4, !tbaa !14
  %18 = icmp eq i32 %17, 1
  br i1 %18, label %19, label %36

19:                                               ; preds = %16
  %20 = load ptr, ptr %8, align 8, !tbaa !3
  %21 = getelementptr inbounds i8, ptr %20, i64 0
  %22 = load i8, ptr %21, align 1, !tbaa !8
  %23 = sext i8 %22 to i32
  %24 = icmp eq i32 %23, 120
  br i1 %24, label %25, label %34

25:                                               ; preds = %19
  %26 = load ptr, ptr %8, align 8, !tbaa !3
  %27 = getelementptr inbounds i8, ptr %26, i64 1
  %28 = load i8, ptr %27, align 1, !tbaa !8
  %29 = sext i8 %28 to i32
  %30 = icmp eq i32 %29, 45
  br i1 %30, label %31, label %34

31:                                               ; preds = %25
  %32 = load ptr, ptr %8, align 8, !tbaa !3
  %33 = getelementptr inbounds i8, ptr %32, i64 2
  store ptr %33, ptr %8, align 8, !tbaa !3
  br label %35

34:                                               ; preds = %25, %19
  br label %72

35:                                               ; preds = %31
  br label %36

36:                                               ; preds = %35, %16
  %37 = load ptr, ptr %7, align 8, !tbaa !17
  %38 = call noundef signext i8 @_ZL13haveAliasDataP10UErrorCode(ptr noundef %37)
  %39 = icmp ne i8 %38, 0
  br i1 %39, label %40, label %67

40:                                               ; preds = %36
  %41 = load ptr, ptr %8, align 8, !tbaa !3
  %42 = load ptr, ptr %7, align 8, !tbaa !17
  %43 = call noundef signext i8 @_ZL7isAliasPKcP10UErrorCode(ptr noundef %41, ptr noundef %42)
  %44 = icmp ne i8 %43, 0
  br i1 %44, label %45, label %67

45:                                               ; preds = %40
  call void @llvm.lifetime.start.p0(i64 4, ptr %10) #12
  %46 = load ptr, ptr %8, align 8, !tbaa !3
  %47 = load ptr, ptr %6, align 8, !tbaa !3
  %48 = load ptr, ptr %7, align 8, !tbaa !17
  %49 = call noundef i32 @_ZL13findConverterPKcPaP10UErrorCode(ptr noundef %46, ptr noundef %47, ptr noundef %48)
  store i32 %49, ptr %10, align 4, !tbaa !14
  %50 = load i32, ptr %10, align 4, !tbaa !14
  %51 = load i32, ptr getelementptr inbounds nuw (%struct.UConverterAlias, ptr @_ZL10gMainTable, i32 0, i32 9), align 8, !tbaa !18
  %52 = icmp ult i32 %50, %51
  br i1 %52, label %53, label %63

53:                                               ; preds = %45
  %54 = load ptr, ptr getelementptr inbounds nuw (%struct.UConverterAlias, ptr @_ZL10gMainTable, i32 0, i32 7), align 8, !tbaa !21
  %55 = load ptr, ptr @_ZL10gMainTable, align 8, !tbaa !22
  %56 = load i32, ptr %10, align 4, !tbaa !14
  %57 = zext i32 %56 to i64
  %58 = getelementptr inbounds nuw i16, ptr %55, i64 %57
  %59 = load i16, ptr %58, align 2, !tbaa !23
  %60 = zext i16 %59 to i32
  %61 = sext i32 %60 to i64
  %62 = getelementptr inbounds i16, ptr %54, i64 %61
  store ptr %62, ptr %4, align 8
  store i32 1, ptr %11, align 4
  br label %64

63:                                               ; preds = %45
  store i32 0, ptr %11, align 4
  br label %64

64:                                               ; preds = %63, %53
  call void @llvm.lifetime.end.p0(i64 4, ptr %10) #12
  %65 = load i32, ptr %11, align 4
  switch i32 %65, label %73 [
    i32 0, label %66
  ]

66:                                               ; preds = %64
  br label %68

67:                                               ; preds = %40, %36
  br label %72

68:                                               ; preds = %66
  br label %69

69:                                               ; preds = %68
  %70 = load i32, ptr %9, align 4, !tbaa !14
  %71 = add nsw i32 %70, 1
  store i32 %71, ptr %9, align 4, !tbaa !14
  br label %13, !llvm.loop !25

72:                                               ; preds = %67, %34, %13
  store ptr null, ptr %4, align 8
  store i32 1, ptr %11, align 4
  br label %73

73:                                               ; preds = %72, %64
  call void @llvm.lifetime.end.p0(i64 4, ptr %9) #12
  call void @llvm.lifetime.end.p0(i64 8, ptr %8) #12
  %74 = load ptr, ptr %4, align 8
  ret ptr %74
}