; Function Attrs: mustprogress uwtable
define ptr @ucnv_io_getConverterName_77(ptr noundef readonly %0, ptr noundef %1, ptr noundef %2) local_unnamed_addr #3 {
  br label %5

4:                                                ; preds = %20
  br i1 %.not29, label %5, label %.loopexit, !llvm.loop !12

5:                                                ; preds = %3, %4
  %.not29 = phi i1 [ true, %3 ], [ false, %4 ]
  %.01827 = phi ptr [ %0, %3 ], [ %.119, %4 ]
  br i1 %.not29, label %15, label %6

6:                                                ; preds = %5
  %7 = load i8, ptr %.01827, align 1, !tbaa !3
  %8 = icmp eq i8 %7, 120
  br i1 %8, label %9, label %.loopexit

9:                                                ; preds = %6
  %10 = getelementptr inbounds nuw i8, ptr %.01827, i64 1
  %11 = load i8, ptr %10, align 1, !tbaa !3
  %12 = icmp eq i8 %11, 45
  br i1 %12, label %13, label %.loopexit

13:                                               ; preds = %9
  %14 = getelementptr inbounds nuw i8, ptr %.01827, i64 2
  br label %15

15:                                               ; preds = %13, %5
  %.119 = phi ptr [ %14, %13 ], [ %.01827, %5 ]
  %16 = tail call fastcc noundef signext i8 @_ZL13haveAliasDataP10UErrorCode(ptr noundef %2)
  %.not = icmp eq i8 %16, 0
  br i1 %.not, label %.loopexit, label %17

17:                                               ; preds = %15
  %18 = icmp eq ptr %.119, null
  br i1 %18, label %_ZL7isAliasPKcP10UErrorCode.exit.thread, label %_ZL7isAliasPKcP10UErrorCode.exit

_ZL7isAliasPKcP10UErrorCode.exit.thread:          ; preds = %17
  store i32 1, ptr %2, align 4, !tbaa !13
  br label %.loopexit

_ZL7isAliasPKcP10UErrorCode.exit:                 ; preds = %17
  %19 = load i8, ptr %.119, align 1, !tbaa !3
  %.not26 = icmp eq i8 %19, 0
  br i1 %.not26, label %.loopexit, label %20

20:                                               ; preds = %_ZL7isAliasPKcP10UErrorCode.exit
  %21 = tail call fastcc noundef i32 @_ZL13findConverterPKcPaP10UErrorCode(ptr noundef nonnull %.119, ptr noundef %1, ptr noundef %2)
  %22 = load i32, ptr getelementptr inbounds nuw (i8, ptr @_ZL10gMainTable, i64 72), align 8, !tbaa !15
  %.not22 = icmp ult i32 %21, %22
  br i1 %.not22, label %.thread, label %4

.thread:                                          ; preds = %20
  %23 = load ptr, ptr getelementptr inbounds nuw (i8, ptr @_ZL10gMainTable, i64 56), align 8, !tbaa !20
  %24 = load ptr, ptr @_ZL10gMainTable, align 8, !tbaa !21
  %25 = zext nneg i32 %21 to i64
  %26 = getelementptr inbounds nuw i16, ptr %24, i64 %25
  %27 = load i16, ptr %26, align 2, !tbaa !22
  %28 = zext i16 %27 to i64
  %29 = getelementptr inbounds nuw i16, ptr %23, i64 %28
  br label %.loopexit

.loopexit:                                        ; preds = %4, %9, %6, %_ZL7isAliasPKcP10UErrorCode.exit, %15, %.thread, %_ZL7isAliasPKcP10UErrorCode.exit.thread
  %.2 = phi ptr [ null, %_ZL7isAliasPKcP10UErrorCode.exit.thread ], [ %29, %.thread ], [ null, %15 ], [ null, %_ZL7isAliasPKcP10UErrorCode.exit ], [ null, %6 ], [ null, %9 ], [ null, %4 ]
  ret ptr %.2
}